target datalayout = "e-m:e-p270:32:32-p271:32:32-p272:64:64-i64:64-i128:128-f80:128-n8:16:32:64-S128"
target triple = "x86_64-pc-linux-gnu"

@.str.1 = private unnamed_addr constant [37 x i8] c"../openssl/test/helpers/ssltestlib.c\00", align 1
@.str.29 = private unnamed_addr constant [45 x i8] c"serverctx = SSL_CTX_new_ex(libctx, NULL, sm)\00", align 1
@.str.30 = private unnamed_addr constant [66 x i8] c"SSL_CTX_set_options(serverctx, SSL_OP_ALLOW_CLIENT_RENEGOTIATION)\00", align 1
@.str.31 = private unnamed_addr constant [45 x i8] c"clientctx = SSL_CTX_new_ex(libctx, NULL, cm)\00", align 1
@.str.32 = private unnamed_addr constant [60 x i8] c"SSL_CTX_set_min_proto_version(serverctx, min_proto_version)\00", align 1
@.str.33 = private unnamed_addr constant [60 x i8] c"SSL_CTX_set_max_proto_version(serverctx, max_proto_version)\00", align 1
@.str.34 = private unnamed_addr constant [60 x i8] c"SSL_CTX_set_min_proto_version(clientctx, min_proto_version)\00", align 1
@.str.35 = private unnamed_addr constant [60 x i8] c"SSL_CTX_set_max_proto_version(clientctx, max_proto_version)\00", align 1
@.str.36 = private unnamed_addr constant [68 x i8] c"SSL_CTX_use_certificate_file(serverctx, certfile, SSL_FILETYPE_PEM)\00", align 1
@.str.37 = private unnamed_addr constant [2 x i8] c"1\00", align 1
@.str.38 = private unnamed_addr constant [70 x i8] c"SSL_CTX_use_PrivateKey_file(serverctx, privkeyfile, SSL_FILETYPE_PEM)\00", align 1
@.str.39 = private unnamed_addr constant [37 x i8] c"SSL_CTX_check_private_key(serverctx)\00", align 1

; Function Attrs: nounwind uwtable
define dso_local i32 @create_ssl_ctx_pair(ptr noundef %0, ptr noundef %1, ptr noundef %2, i32 noundef %3, i32 noundef %4, ptr noundef %5, ptr noundef %6, ptr noundef %7, ptr noundef %8) #0 {
  %10 = alloca i32, align 4
  %11 = alloca ptr, align 8
  %12 = alloca ptr, align 8
  %13 = alloca ptr, align 8
  %14 = alloca i32, align 4
  %15 = alloca i32, align 4
  %16 = alloca ptr, align 8
  %17 = alloca ptr, align 8
  %18 = alloca ptr, align 8
  %19 = alloca ptr, align 8
  %20 = alloca ptr, align 8
  %21 = alloca ptr, align 8
  %22 = alloca i32, align 4
  store ptr %0, ptr %11, align 8, !tbaa !55
  store ptr %1, ptr %12, align 8, !tbaa !57
  store ptr %2, ptr %13, align 8, !tbaa !57
  store i32 %3, ptr %14, align 4, !tbaa !13
  store i32 %4, ptr %15, align 4, !tbaa !13
  store ptr %5, ptr %16, align 8, !tbaa !59
  store ptr %6, ptr %17, align 8, !tbaa !59
  store ptr %7, ptr %18, align 8, !tbaa !11
  store ptr %8, ptr %19, align 8, !tbaa !11
  call void @llvm.lifetime.start.p0(i64 8, ptr %20) #10
  store ptr null, ptr %20, align 8, !tbaa !61
  call void @llvm.lifetime.start.p0(i64 8, ptr %21) #10
  store ptr null, ptr %21, align 8, !tbaa !61
  %23 = load ptr, ptr %16, align 8, !tbaa !59
  %24 = icmp ne ptr %23, null
  br i1 %24, label %25, label %48

25:                                               ; preds = %9
  %26 = load ptr, ptr %16, align 8, !tbaa !59
  %27 = load ptr, ptr %26, align 8, !tbaa !61
  %28 = icmp ne ptr %27, null
  br i1 %28, label %29, label %32

29:                                               ; preds = %25
  %30 = load ptr, ptr %16, align 8, !tbaa !59
  %31 = load ptr, ptr %30, align 8, !tbaa !61
  store ptr %31, ptr %20, align 8, !tbaa !61
  br label %47

32:                                               ; preds = %25
  %33 = load ptr, ptr %11, align 8, !tbaa !55
  %34 = load ptr, ptr %12, align 8, !tbaa !57
  %35 = call ptr @SSL_CTX_new_ex(ptr noundef %33, ptr noundef null, ptr noundef %34)
  store ptr %35, ptr %20, align 8, !tbaa !61
  %36 = call i32 @test_ptr(ptr noundef @.str.1, i32 noundef 924, ptr noundef @.str.29, ptr noundef %35)
  %37 = icmp ne i32 %36, 0
  br i1 %37, label %38, label %45

38:                                               ; preds = %32
  %39 = load ptr, ptr %20, align 8, !tbaa !61
  %40 = call i64 @SSL_CTX_set_options(ptr noundef %39, i64 noundef 256)
  %41 = icmp ne i64 %40, 0
  %42 = zext i1 %41 to i32
  %43 = call i32 @test_true(ptr noundef @.str.1, i32 noundef 926, ptr noundef @.str.30, i32 noundef %42)
  %44 = icmp ne i32 %43, 0
  br i1 %44, label %46, label %45

45:                                               ; preds = %38, %32
  br label %164

46:                                               ; preds = %38
  br label %47

47:                                               ; preds = %46, %29
  br label %48

48:                                               ; preds = %47, %9
  %49 = load ptr, ptr %17, align 8, !tbaa !59
  %50 = icmp ne ptr %49, null
  br i1 %50, label %51, label %67

51:                                               ; preds = %48
  %52 = load ptr, ptr %17, align 8, !tbaa !59
  %53 = load ptr, ptr %52, align 8, !tbaa !61
  %54 = icmp ne ptr %53, null
  br i1 %54, label %55, label %58

55:                                               ; preds = %51
  %56 = load ptr, ptr %17, align 8, !tbaa !59
  %57 = load ptr, ptr %56, align 8, !tbaa !61
  store ptr %57, ptr %21, align 8, !tbaa !61
  br label %66

58:                                               ; preds = %51
  %59 = load ptr, ptr %11, align 8, !tbaa !55
  %60 = load ptr, ptr %13, align 8, !tbaa !57
  %61 = call ptr @SSL_CTX_new_ex(ptr noundef %59, ptr noundef null, ptr noundef %60)
  store ptr %61, ptr %21, align 8, !tbaa !61
  %62 = call i32 @test_ptr(ptr noundef @.str.1, i32 noundef 933, ptr noundef @.str.31, ptr noundef %61)
  %63 = icmp ne i32 %62, 0
  br i1 %63, label %65, label %64

64:                                               ; preds = %58
  br label %164

65:                                               ; preds = %58
  br label %66

66:                                               ; preds = %65, %55
  br label %67

67:                                               ; preds = %66, %48
  %68 = load ptr, ptr %20, align 8, !tbaa !61
  %69 = icmp ne ptr %68, null
  br i1 %69, label %70, label %95

70:                                               ; preds = %67
  %71 = load i32, ptr %14, align 4, !tbaa !13
  %72 = icmp sgt i32 %71, 0
  br i1 %72, label %73, label %82

73:                                               ; preds = %70
  %74 = load ptr, ptr %20, align 8, !tbaa !61
  %75 = load i32, ptr %14, align 4, !tbaa !13
  %76 = sext i32 %75 to i64
  %77 = call i64 @SSL_CTX_ctrl(ptr noundef %74, i32 noundef 123, i64 noundef %76, ptr noundef null)
  %78 = icmp ne i64 %77, 0
  %79 = zext i1 %78 to i32
  %80 = call i32 @test_true(ptr noundef @.str.1, i32 noundef 952, ptr noundef @.str.32, i32 noundef %79)
  %81 = icmp ne i32 %80, 0
  br i1 %81, label %82, label %94

82:                                               ; preds = %73, %70
  %83 = load i32, ptr %15, align 4, !tbaa !13
  %84 = icmp sgt i32 %83, 0
  br i1 %84, label %85, label %95

85:                                               ; preds = %82
  %86 = load ptr, ptr %20, align 8, !tbaa !61
  %87 = load i32, ptr %15, align 4, !tbaa !13
  %88 = sext i32 %87 to i64
  %89 = call i64 @SSL_CTX_ctrl(ptr noundef %86, i32 noundef 124, i64 noundef %88, ptr noundef null)
  %90 = icmp ne i64 %89, 0
  %91 = zext i1 %90 to i32
  %92 = call i32 @test_true(ptr noundef @.str.1, i32 noundef 955, ptr noundef @.str.33, i32 noundef %91)
  %93 = icmp ne i32 %92, 0
  br i1 %93, label %95, label %94

94:                                               ; preds = %85, %73
  br label %164

95:                                               ; preds = %85, %82, %67
  %96 = load ptr, ptr %21, align 8, !tbaa !61
  %97 = icmp ne ptr %96, null
  br i1 %97, label %98, label %123

98:                                               ; preds = %95
  %99 = load i32, ptr %14, align 4, !tbaa !13
  %100 = icmp sgt i32 %99, 0
  br i1 %100, label %101, label %110

101:                                              ; preds = %98
  %102 = load ptr, ptr %21, align 8, !tbaa !61
  %103 = load i32, ptr %14, align 4, !tbaa !13
  %104 = sext i32 %103 to i64
  %105 = call i64 @SSL_CTX_ctrl(ptr noundef %102, i32 noundef 123, i64 noundef %104, ptr noundef null)
  %106 = icmp ne i64 %105, 0
  %107 = zext i1 %106 to i32
  %108 = call i32 @test_true(ptr noundef @.str.1, i32 noundef 960, ptr noundef @.str.34, i32 noundef %107)
  %109 = icmp ne i32 %108, 0
  br i1 %109, label %110, label %122

110:                                              ; preds = %101, %98
  %111 = load i32, ptr %15, align 4, !tbaa !13
  %112 = icmp sgt i32 %111, 0
  br i1 %112, label %113, label %123

113:                                              ; preds = %110
  %114 = load ptr, ptr %21, align 8, !tbaa !61
  %115 = load i32, ptr %15, align 4, !tbaa !13
  %116 = sext i32 %115 to i64
  %117 = call i64 @SSL_CTX_ctrl(ptr noundef %114, i32 noundef 124, i64 noundef %116, ptr noundef null)
  %118 = icmp ne i64 %117, 0
  %119 = zext i1 %118 to i32
  %120 = call i32 @test_true(ptr noundef @.str.1, i32 noundef 963, ptr noundef @.str.35, i32 noundef %119)
  %121 = icmp ne i32 %120, 0
  br i1 %121, label %123, label %122

122:                                              ; preds = %113, %101
  br label %164

123:                                              ; preds = %113, %110, %95
  %124 = load ptr, ptr %20, align 8, !tbaa !61
  %125 = icmp ne ptr %124, null
  br i1 %125, label %126, label %151

126:                                              ; preds = %123
  %127 = load ptr, ptr %18, align 8, !tbaa !11
  %128 = icmp ne ptr %127, null
  br i1 %128, label %129, label %151

129:                                              ; preds = %126
  %130 = load ptr, ptr %19, align 8, !tbaa !11
  %131 = icmp ne ptr %130, null
  br i1 %131, label %132, label %151

132:                                              ; preds = %129
  %133 = load ptr, ptr %20, align 8, !tbaa !61
  %134 = load ptr, ptr %18, align 8, !tbaa !11
  %135 = call i32 @SSL_CTX_use_certificate_file(ptr noundef %133, ptr noundef %134, i32 noundef 1)
  %136 = call i32 @test_int_eq(ptr noundef @.str.1, i32 noundef 968, ptr noundef @.str.36, ptr noundef @.str.37, i32 noundef %135, i32 noundef 1)
  %137 = icmp ne i32 %136, 0
  br i1 %137, label %138, label %149

138:                                              ; preds = %132
  %139 = load ptr, ptr %20, align 8, !tbaa !61
  %140 = load ptr, ptr %19, align 8, !tbaa !11
  %141 = call i32 @SSL_CTX_use_PrivateKey_file(ptr noundef %139, ptr noundef %140, i32 noundef 1)
  %142 = call i32 @test_int_eq(ptr noundef @.str.1, i32 noundef 971, ptr noundef @.str.38, ptr noundef @.str.37, i32 noundef %141, i32 noundef 1)
  %143 = icmp ne i32 %142, 0
  br i1 %143, label %144, label %149

144:                                              ; preds = %138
  %145 = load ptr, ptr %20, align 8, !tbaa !61
  %146 = call i32 @SSL_CTX_check_private_key(ptr noundef %145)
  %147 = call i32 @test_int_eq(ptr noundef @.str.1, i32 noundef 972, ptr noundef @.str.39, ptr noundef @.str.37, i32 noundef %146, i32 noundef 1)
  %148 = icmp ne i32 %147, 0
  br i1 %148, label %150, label %149

149:                                              ; preds = %144, %138, %132
  br label %164

150:                                              ; preds = %144
  br label %151

151:                                              ; preds = %150, %129, %126, %123
  %152 = load ptr, ptr %16, align 8, !tbaa !59
  %153 = icmp ne ptr %152, null
  br i1 %153, label %154, label %157

154:                                              ; preds = %151
  %155 = load ptr, ptr %20, align 8, !tbaa !61
  %156 = load ptr, ptr %16, align 8, !tbaa !59
  store ptr %155, ptr %156, align 8, !tbaa !61
  br label %157

157:                                              ; preds = %154, %151
  %158 = load ptr, ptr %17, align 8, !tbaa !59
  %159 = icmp ne ptr %158, null
  br i1 %159, label %160, label %163

160:                                              ; preds = %157
  %161 = load ptr, ptr %21, align 8, !tbaa !61
  %162 = load ptr, ptr %17, align 8, !tbaa !59
  store ptr %161, ptr %162, align 8, !tbaa !61
  br label %163

163:                                              ; preds = %160, %157
  store i32 1, ptr %10, align 4
  store i32 1, ptr %22, align 4
  br label %183

164:                                              ; preds = %149, %122, %94, %64, %45
  %165 = load ptr, ptr %16, align 8, !tbaa !59
  %166 = icmp ne ptr %165, null
  br i1 %166, label %167, label %173

167:                                              ; preds = %164
  %168 = load ptr, ptr %16, align 8, !tbaa !59
  %169 = load ptr, ptr %168, align 8, !tbaa !61
  %170 = icmp eq ptr %169, null
  br i1 %170, label %171, label %173

171:                                              ; preds = %167
  %172 = load ptr, ptr %20, align 8, !tbaa !61
  call void @SSL_CTX_free(ptr noundef %172)
  br label %173

173:                                              ; preds = %171, %167, %164
  %174 = load ptr, ptr %17, align 8, !tbaa !59
  %175 = icmp ne ptr %174, null
  br i1 %175, label %176, label %182

176:                                              ; preds = %173
  %177 = load ptr, ptr %17, align 8, !tbaa !59
  %178 = load ptr, ptr %177, align 8, !tbaa !61
  %179 = icmp eq ptr %178, null
  br i1 %179, label %180, label %182

180:                                              ; preds = %176
  %181 = load ptr, ptr %21, align 8, !tbaa !61
  call void @SSL_CTX_free(ptr noundef %181)
  br label %182

182:                                              ; preds = %180, %176, %173
  store i32 0, ptr %10, align 4
  store i32 1, ptr %22, align 4
  br label %183

183:                                              ; preds = %182, %163
  call void @llvm.lifetime.end.p0(i64 8, ptr %21) #10
  call void @llvm.lifetime.end.p0(i64 8, ptr %20) #10
  %184 = load i32, ptr %10, align 4
  ret i32 %184
}