; Function Attrs: nounwind uwtable
define dso_local range(i32 0, 2) i32 @create_ssl_ctx_pair(ptr noundef %0, ptr noundef %1, ptr noundef %2, i32 noundef %3, i32 noundef %4, ptr noundef captures(address_is_null) %5, ptr noundef captures(address_is_null) %6, ptr noundef %7, ptr noundef %8) local_unnamed_addr #0 {
  %.not = icmp eq ptr %5, null
  br i1 %.not, label %20, label %10

10:                                               ; preds = %9
  %11 = load ptr, ptr %5, align 8, !tbaa !48
  %.not64 = icmp eq ptr %11, null
  br i1 %.not64, label %12, label %20

12:                                               ; preds = %10
  %13 = tail call ptr @SSL_CTX_new_ex(ptr noundef %0, ptr noundef null, ptr noundef %1) #14
  %14 = tail call i32 @test_ptr(ptr noundef nonnull @.str.1, i32 noundef 924, ptr noundef nonnull @.str.29, ptr noundef %13) #14
  %.not65 = icmp eq i32 %14, 0
  br i1 %.not65, label %.thread, label %15

15:                                               ; preds = %12
  %16 = tail call i64 @SSL_CTX_set_options(ptr noundef %13, i64 noundef 256) #14
  %17 = icmp ne i64 %16, 0
  %18 = zext i1 %17 to i32
  %19 = tail call i32 @test_true(ptr noundef nonnull @.str.1, i32 noundef 926, ptr noundef nonnull @.str.30, i32 noundef %18) #14
  %.not66 = icmp eq i32 %19, 0
  br i1 %.not66, label %.thread, label %20

20:                                               ; preds = %10, %15, %9
  %.048 = phi ptr [ %13, %15 ], [ null, %9 ], [ %11, %10 ]
  %.not67 = icmp eq ptr %6, null
  br i1 %.not67, label %26, label %21

21:                                               ; preds = %20
  %22 = load ptr, ptr %6, align 8, !tbaa !48
  %.not68 = icmp eq ptr %22, null
  br i1 %.not68, label %23, label %26

23:                                               ; preds = %21
  %24 = tail call ptr @SSL_CTX_new_ex(ptr noundef %0, ptr noundef null, ptr noundef %2) #14
  %25 = tail call i32 @test_ptr(ptr noundef nonnull @.str.1, i32 noundef 933, ptr noundef nonnull @.str.31, ptr noundef %24) #14
  %.not69 = icmp eq i32 %25, 0
  br i1 %.not69, label %78, label %26

26:                                               ; preds = %21, %23, %20
  %.1 = phi ptr [ %24, %23 ], [ null, %20 ], [ %22, %21 ]
  %27 = icmp ne ptr %.048, null
  br i1 %27, label %28, label %44

28:                                               ; preds = %26
  %29 = icmp sgt i32 %3, 0
  br i1 %29, label %30, label %36

30:                                               ; preds = %28
  %31 = zext nneg i32 %3 to i64
  %32 = tail call i64 @SSL_CTX_ctrl(ptr noundef nonnull %.048, i32 noundef 123, i64 noundef %31, ptr noundef null) #14
  %33 = icmp ne i64 %32, 0
  %34 = zext i1 %33 to i32
  %35 = tail call i32 @test_true(ptr noundef nonnull @.str.1, i32 noundef 952, ptr noundef nonnull @.str.32, i32 noundef %34) #14
  %.not70 = icmp eq i32 %35, 0
  br i1 %.not70, label %78, label %36

36:                                               ; preds = %30, %28
  %37 = icmp sgt i32 %4, 0
  br i1 %37, label %38, label %44

38:                                               ; preds = %36
  %39 = zext nneg i32 %4 to i64
  %40 = tail call i64 @SSL_CTX_ctrl(ptr noundef nonnull %.048, i32 noundef 124, i64 noundef %39, ptr noundef null) #14
  %41 = icmp ne i64 %40, 0
  %42 = zext i1 %41 to i32
  %43 = tail call i32 @test_true(ptr noundef nonnull @.str.1, i32 noundef 955, ptr noundef nonnull @.str.33, i32 noundef %42) #14
  %.not71 = icmp eq i32 %43, 0
  br i1 %.not71, label %78, label %44

44:                                               ; preds = %38, %36, %26
  %.not72 = icmp eq ptr %.1, null
  br i1 %.not72, label %61, label %45

45:                                               ; preds = %44
  %46 = icmp sgt i32 %3, 0
  br i1 %46, label %47, label %53

47:                                               ; preds = %45
  %48 = zext nneg i32 %3 to i64
  %49 = tail call i64 @SSL_CTX_ctrl(ptr noundef nonnull %.1, i32 noundef 123, i64 noundef %48, ptr noundef null) #14
  %50 = icmp ne i64 %49, 0
  %51 = zext i1 %50 to i32
  %52 = tail call i32 @test_true(ptr noundef nonnull @.str.1, i32 noundef 960, ptr noundef nonnull @.str.34, i32 noundef %51) #14
  %.not73 = icmp eq i32 %52, 0
  br i1 %.not73, label %78, label %53

53:                                               ; preds = %47, %45
  %54 = icmp sgt i32 %4, 0
  br i1 %54, label %55, label %61

55:                                               ; preds = %53
  %56 = zext nneg i32 %4 to i64
  %57 = tail call i64 @SSL_CTX_ctrl(ptr noundef nonnull %.1, i32 noundef 124, i64 noundef %56, ptr noundef null) #14
  %58 = icmp ne i64 %57, 0
  %59 = zext i1 %58 to i32
  %60 = tail call i32 @test_true(ptr noundef nonnull @.str.1, i32 noundef 963, ptr noundef nonnull @.str.35, i32 noundef %59) #14
  %.not74 = icmp eq i32 %60, 0
  br i1 %.not74, label %78, label %61

61:                                               ; preds = %55, %53, %44
  %62 = icmp ne ptr %7, null
  %63 = icmp ne ptr %8, null
  %64 = and i1 %62, %63
  %or.cond3 = and i1 %64, %27
  br i1 %or.cond3, label %65, label %74

65:                                               ; preds = %61
  %66 = tail call i32 @SSL_CTX_use_certificate_file(ptr noundef nonnull %.048, ptr noundef nonnull %7, i32 noundef 1) #14
  %67 = tail call i32 @test_int_eq(ptr noundef nonnull @.str.1, i32 noundef 968, ptr noundef nonnull @.str.36, ptr noundef nonnull @.str.37, i32 noundef %66, i32 noundef 1) #14
  %.not75 = icmp eq i32 %67, 0
  br i1 %.not75, label %78, label %68

68:                                               ; preds = %65
  %69 = tail call i32 @SSL_CTX_use_PrivateKey_file(ptr noundef nonnull %.048, ptr noundef nonnull %8, i32 noundef 1) #14
  %70 = tail call i32 @test_int_eq(ptr noundef nonnull @.str.1, i32 noundef 971, ptr noundef nonnull @.str.38, ptr noundef nonnull @.str.37, i32 noundef %69, i32 noundef 1) #14
  %.not76 = icmp eq i32 %70, 0
  br i1 %.not76, label %78, label %71

71:                                               ; preds = %68
  %72 = tail call i32 @SSL_CTX_check_private_key(ptr noundef nonnull %.048) #14
  %73 = tail call i32 @test_int_eq(ptr noundef nonnull @.str.1, i32 noundef 972, ptr noundef nonnull @.str.39, ptr noundef nonnull @.str.37, i32 noundef %72, i32 noundef 1) #14
  %.not77 = icmp eq i32 %73, 0
  br i1 %.not77, label %78, label %74

74:                                               ; preds = %71, %61
  br i1 %.not, label %76, label %75

75:                                               ; preds = %74
  store ptr %.048, ptr %5, align 8, !tbaa !48
  br label %76

76:                                               ; preds = %75, %74
  br i1 %.not67, label %87, label %77

77:                                               ; preds = %76
  store ptr %.1, ptr %6, align 8, !tbaa !48
  br label %87

78:                                               ; preds = %65, %68, %71, %47, %55, %30, %38, %23
  %.0 = phi ptr [ %.1, %71 ], [ %.1, %68 ], [ %.1, %65 ], [ %.1, %55 ], [ %.1, %47 ], [ %.1, %38 ], [ %.1, %30 ], [ %24, %23 ]
  br i1 %.not, label %82, label %.thread

.thread:                                          ; preds = %15, %12, %78
  %.082 = phi ptr [ %.0, %78 ], [ null, %12 ], [ null, %15 ]
  %.14981 = phi ptr [ %.048, %78 ], [ %13, %12 ], [ %13, %15 ]
  %79 = load ptr, ptr %5, align 8, !tbaa !48
  %80 = icmp eq ptr %79, null
  br i1 %80, label %81, label %82

81:                                               ; preds = %.thread
  tail call void @SSL_CTX_free(ptr noundef %.14981) #14
  br label %82

82:                                               ; preds = %81, %.thread, %78
  %.083 = phi ptr [ %.082, %81 ], [ %.082, %.thread ], [ %.0, %78 ]
  %.not78 = icmp eq ptr %6, null
  br i1 %.not78, label %87, label %83

83:                                               ; preds = %82
  %84 = load ptr, ptr %6, align 8, !tbaa !48
  %85 = icmp eq ptr %84, null
  br i1 %85, label %86, label %87

86:                                               ; preds = %83
  tail call void @SSL_CTX_free(ptr noundef %.083) #14
  br label %87

87:                                               ; preds = %82, %83, %86, %76, %77
  %.050 = phi i32 [ 1, %77 ], [ 1, %76 ], [ 0, %86 ], [ 0, %83 ], [ 0, %82 ]
  ret i32 %.050
}